; Function Attrs: nounwind uwtable
define range(i32 -1, 1) i32 @H5P_init_phase2() local_unnamed_addr #0 {
  %1 = load i8, ptr @H5P_init_g, align 1, !tbaa !3, !range !7, !noundef !8
  %2 = trunc nuw i8 %1 to i1
  %3 = load i8, ptr @H5_libterm_g, align 1, !range !7
  %4 = trunc nuw i8 %3 to i1
  %5 = select i1 %2, i1 true, i1 %4
  br i1 %5, label %13, label %6, !prof !9

6:                                                ; preds = %0
  store i8 1, ptr @H5P_init_g, align 1, !tbaa !3
  %7 = tail call i32 @H5P__init_package()
  %8 = icmp slt i32 %7, 0
  br i1 %8, label %9, label %._crit_edge

._crit_edge:                                      ; preds = %6
  %.pre = load i8, ptr @H5P_init_g, align 1, !tbaa !3, !range !7
  %.pre3 = load i8, ptr @H5_libterm_g, align 1, !range !7
  %.pre4 = trunc nuw i8 %.pre to i1
  %.pre5 = trunc nuw i8 %.pre3 to i1
  br label %13

9:                                                ; preds = %6
  store i8 0, ptr @H5P_init_g, align 1, !tbaa !3
  %10 = load i64, ptr @H5E_FUNC_g, align 8, !tbaa !10
  %11 = load i64, ptr @H5E_CANTINIT_g, align 8, !tbaa !10
  %12 = tail call i32 (ptr, ptr, i32, i64, i64, ptr, ...) @H5E_printf_stack(ptr noundef nonnull @.str.7, ptr noundef nonnull @__func__.H5P_init_phase2, i32 noundef 453, i64 noundef %10, i64 noundef %11, ptr noundef nonnull @.str.8) #14
  br label %23

13:                                               ; preds = %._crit_edge, %0
  %.pre-phi6 = phi i1 [ %.pre5, %._crit_edge ], [ %4, %0 ]
  %.pre-phi = phi i1 [ %.pre4, %._crit_edge ], [ %2, %0 ]
  %14 = xor i1 %.pre-phi6, true
  %15 = select i1 %.pre-phi, i1 true, i1 %14
  br i1 %15, label %16, label %23, !prof !9

16:                                               ; preds = %13
  %17 = tail call i32 @H5P__facc_set_def_driver() #14
  %18 = icmp slt i32 %17, 0
  br i1 %18, label %19, label %23

19:                                               ; preds = %16
  %20 = load i64, ptr @H5E_PLIST_g, align 8, !tbaa !10
  %21 = load i64, ptr @H5E_CANTSET_g, align 8, !tbaa !10
  %22 = tail call i32 (ptr, ptr, i32, i64, i64, ptr, ...) @H5E_printf_stack(ptr noundef nonnull @.str.7, ptr noundef nonnull @__func__.H5P_init_phase2, i32 noundef 457, i64 noundef %20, i64 noundef %21, ptr noundef nonnull @.str.9) #14
  br label %23

23:                                               ; preds = %9, %19, %16, %13
  %.0 = phi i32 [ -1, %9 ], [ -1, %19 ], [ 0, %16 ], [ 0, %13 ]
  ret i32 %.0
}